target datalayout = "e-m:e-p270:32:32-p271:32:32-p272:64:64-i64:64-i128:128-f80:128-n8:16:32:64-S128"
target triple = "x86_64-pc-linux-gnu"

%struct._value_string = type { i32, ptr }
%struct._GArray = type { ptr, i32 }

; Function Attrs: nounwind uwtable
define internal void @destroy_value_strings(ptr noundef %0) #0 {
  %2 = alloca ptr, align 8
  %3 = alloca ptr, align 8
  store ptr %0, ptr %2, align 8
  %4 = load ptr, ptr %2, align 8
  %5 = getelementptr inbounds %struct._GArray, ptr %4, i32 0, i32 0
  %6 = load ptr, ptr %5, align 8
  store ptr %6, ptr %3, align 8
  br label %7

7:                                                ; preds = %16, %1
  %8 = load ptr, ptr %3, align 8
  %9 = getelementptr inbounds %struct._value_string, ptr %8, i32 0, i32 1
  %10 = load ptr, ptr %9, align 8
  %11 = icmp ne ptr %10, null
  br i1 %11, label %12, label %19

12:                                               ; preds = %7
  %13 = load ptr, ptr %3, align 8
  %14 = getelementptr inbounds %struct._value_string, ptr %13, i32 0, i32 1
  %15 = load ptr, ptr %14, align 8
  call void @g_free(ptr noundef %15)
  br label %16

16:                                               ; preds = %12
  %17 = load ptr, ptr %3, align 8
  %18 = getelementptr %struct._value_string, ptr %17, i32 1
  store ptr %18, ptr %3, align 8
  br label %7, !llvm.loop !18

19:                                               ; preds = %7
  %20 = load ptr, ptr %2, align 8
  %21 = call ptr @g_array_free(ptr noundef %20, i32 noundef 1)
  ret void
}