; Function Attrs: nounwind uwtable
define internal void @destroy_value_strings(ptr noundef %0) #0 {
  %2 = load ptr, ptr %0, align 8
  %3 = getelementptr inbounds nuw i8, ptr %2, i64 8
  %4 = load ptr, ptr %3, align 8
  %.not6 = icmp eq ptr %4, null
  br i1 %.not6, label %._crit_edge, label %.lr.ph

.lr.ph:                                           ; preds = %1, %.lr.ph
  %5 = phi ptr [ %8, %.lr.ph ], [ %4, %1 ]
  %.07 = phi ptr [ %6, %.lr.ph ], [ %2, %1 ]
  tail call void @g_free(ptr noundef nonnull %5) #29
  %6 = getelementptr i8, ptr %.07, i64 16
  %7 = getelementptr i8, ptr %.07, i64 24
  %8 = load ptr, ptr %7, align 8
  %.not = icmp eq ptr %8, null
  br i1 %.not, label %._crit_edge, label %.lr.ph, !llvm.loop !17

._crit_edge:                                      ; preds = %.lr.ph, %1
  %9 = tail call ptr @g_array_free(ptr noundef nonnull %0, i32 noundef 1) #29
  ret void
}